	.text
	.def	@feat.00;
	.scl	3;
	.type	0;
	.endef
	.globl	@feat.00
.set @feat.00, 0
	.file	"multiply.c"
	.def	sprintf;
	.scl	2;
	.type	32;
	.endef
	.section	.text,"xr",discard,sprintf
	.globl	sprintf                         # -- Begin function sprintf
	.p2align	4, 0x90
sprintf:                                # @sprintf
.seh_proc sprintf
# %bb.0:
	subq	$72, %rsp
	.seh_stackalloc 72
	.seh_endprologue
	movq	%r9, 104(%rsp)
	movq	%r8, 96(%rsp)
	movq	%rdx, 64(%rsp)
	movq	%rcx, 56(%rsp)
	leaq	96(%rsp), %rax
	movq	%rax, 40(%rsp)
	movq	40(%rsp), %r9
	movq	64(%rsp), %rdx
	movq	56(%rsp), %rcx
	xorl	%eax, %eax
	movl	%eax, %r8d
	callq	_vsprintf_l
	movl	%eax, 52(%rsp)
	movl	52(%rsp), %eax
	addq	$72, %rsp
	retq
	.seh_endproc
                                        # -- End function
	.def	vsprintf;
	.scl	2;
	.type	32;
	.endef
	.section	.text,"xr",discard,vsprintf
	.globl	vsprintf                        # -- Begin function vsprintf
	.p2align	4, 0x90
vsprintf:                               # @vsprintf
.seh_proc vsprintf
# %bb.0:
	subq	$72, %rsp
	.seh_stackalloc 72
	.seh_endprologue
	movq	%r8, 64(%rsp)
	movq	%rdx, 56(%rsp)
	movq	%rcx, 48(%rsp)
	movq	64(%rsp), %rax
	movq	56(%rsp), %r8
	movq	48(%rsp), %rcx
	movq	$-1, %rdx
	xorl	%r9d, %r9d
                                        # kill: def $r9 killed $r9d
	movq	%rax, 32(%rsp)
	callq	_vsnprintf_l
	nop
	addq	$72, %rsp
	retq
	.seh_endproc
                                        # -- End function
	.def	_snprintf;
	.scl	2;
	.type	32;
	.endef
	.section	.text,"xr",discard,_snprintf
	.globl	_snprintf                       # -- Begin function _snprintf
	.p2align	4, 0x90
_snprintf:                              # @_snprintf
.seh_proc _snprintf
# %bb.0:
	subq	$72, %rsp
	.seh_stackalloc 72
	.seh_endprologue
	movq	%r9, 104(%rsp)
	movq	%r8, 64(%rsp)
	movq	%rdx, 56(%rsp)
	movq	%rcx, 48(%rsp)
	leaq	104(%rsp), %rax
	movq	%rax, 32(%rsp)
	movq	32(%rsp), %r9
	movq	64(%rsp), %r8
	movq	56(%rsp), %rdx
	movq	48(%rsp), %rcx
	callq	_vsnprintf
	movl	%eax, 44(%rsp)
	movl	44(%rsp), %eax
	addq	$72, %rsp
	retq
	.seh_endproc
                                        # -- End function
	.def	_vsnprintf;
	.scl	2;
	.type	32;
	.endef
	.section	.text,"xr",discard,_vsnprintf
	.globl	_vsnprintf                      # -- Begin function _vsnprintf
	.p2align	4, 0x90
_vsnprintf:                             # @_vsnprintf
.seh_proc _vsnprintf
# %bb.0:
	subq	$72, %rsp
	.seh_stackalloc 72
	.seh_endprologue
	movq	%r9, 64(%rsp)
	movq	%r8, 56(%rsp)
	movq	%rdx, 48(%rsp)
	movq	%rcx, 40(%rsp)
	movq	64(%rsp), %rax
	movq	56(%rsp), %r8
	movq	48(%rsp), %rdx
	movq	40(%rsp), %rcx
	xorl	%r9d, %r9d
                                        # kill: def $r9 killed $r9d
	movq	%rax, 32(%rsp)
	callq	_vsnprintf_l
	nop
	addq	$72, %rsp
	retq
	.seh_endproc
                                        # -- End function
	.def	main;
	.scl	2;
	.type	32;
	.endef
	.text
	.globl	main                            # -- Begin function main
	.p2align	4, 0x90
main:                                   # @main
.seh_proc main
# %bb.0:
	subq	$40, %rsp
	.seh_stackalloc 40
	.seh_endprologue
	movl	$0, 36(%rsp)
	movl	$1, %ecx
	movl	$3, %edx
	callq	multiply
	movl	%eax, 32(%rsp)
	movl	32(%rsp), %eax
	addq	$40, %rsp
	retq
	.seh_endproc
                                        # -- End function
	.def	multiply;
	.scl	2;
	.type	32;
	.endef
	.globl	multiply                        # -- Begin function multiply
	.p2align	4, 0x90
multiply:                               # @multiply
.seh_proc multiply
# %bb.0:
	pushq	%rax
	.seh_stackalloc 8
	.seh_endprologue
	movl	%edx, 4(%rsp)
	movl	%ecx, (%rsp)
	movl	(%rsp), %eax
	imull	4(%rsp), %eax
	popq	%rcx
	retq
	.seh_endproc
                                        # -- End function
	.def	_vsprintf_l;
	.scl	2;
	.type	32;
	.endef
	.section	.text,"xr",discard,_vsprintf_l
	.globl	_vsprintf_l                     # -- Begin function _vsprintf_l
	.p2align	4, 0x90
_vsprintf_l:                            # @_vsprintf_l
.seh_proc _vsprintf_l
# %bb.0:
	subq	$72, %rsp
	.seh_stackalloc 72
	.seh_endprologue
	movq	%r9, 64(%rsp)
	movq	%r8, 56(%rsp)
	movq	%rdx, 48(%rsp)
	movq	%rcx, 40(%rsp)
	movq	64(%rsp), %rax
	movq	56(%rsp), %r9
	movq	48(%rsp), %r8
	movq	40(%rsp), %rcx
	movq	$-1, %rdx
	movq	%rax, 32(%rsp)
	callq	_vsnprintf_l
	nop
	addq	$72, %rsp
	retq
	.seh_endproc
                                        # -- End function
	.def	_vsnprintf_l;
	.scl	2;
	.type	32;
	.endef
	.section	.text,"xr",discard,_vsnprintf_l
	.globl	_vsnprintf_l                    # -- Begin function _vsnprintf_l
	.p2align	4, 0x90
_vsnprintf_l:                           # @_vsnprintf_l
.seh_proc _vsnprintf_l
# %bb.0:
	subq	$136, %rsp
	.seh_stackalloc 136
	.seh_endprologue
	movq	176(%rsp), %rax
	movq	%r9, 128(%rsp)
	movq	%r8, 120(%rsp)
	movq	%rdx, 112(%rsp)
	movq	%rcx, 104(%rsp)
	movq	176(%rsp), %rax
	movq	%rax, 88(%rsp)                  # 8-byte Spill
	movq	128(%rsp), %rax
	movq	%rax, 80(%rsp)                  # 8-byte Spill
	movq	120(%rsp), %rax
	movq	%rax, 72(%rsp)                  # 8-byte Spill
	movq	112(%rsp), %rax
	movq	%rax, 64(%rsp)                  # 8-byte Spill
	movq	104(%rsp), %rax
	movq	%rax, 56(%rsp)                  # 8-byte Spill
	callq	__local_stdio_printf_options
	movq	56(%rsp), %rdx                  # 8-byte Reload
	movq	64(%rsp), %r8                   # 8-byte Reload
	movq	72(%rsp), %r9                   # 8-byte Reload
	movq	80(%rsp), %r10                  # 8-byte Reload
	movq	%rax, %rcx
	movq	88(%rsp), %rax                  # 8-byte Reload
	movq	(%rcx), %rcx
	orq	$1, %rcx
	movq	%r10, 32(%rsp)
	movq	%rax, 40(%rsp)
	callq	__stdio_common_vsprintf
	movl	%eax, 100(%rsp)
	cmpl	$0, 100(%rsp)
	jge	.LBB7_2
# %bb.1:
	movl	$4294967295, %eax               # imm = 0xFFFFFFFF
	movl	%eax, 52(%rsp)                  # 4-byte Spill
	jmp	.LBB7_3
.LBB7_2:
	movl	100(%rsp), %eax
	movl	%eax, 52(%rsp)                  # 4-byte Spill
.LBB7_3:
	movl	52(%rsp), %eax                  # 4-byte Reload
	addq	$136, %rsp
	retq
	.seh_endproc
                                        # -- End function
	.def	__local_stdio_printf_options;
	.scl	2;
	.type	32;
	.endef
	.section	.text,"xr",discard,__local_stdio_printf_options
	.globl	__local_stdio_printf_options    # -- Begin function __local_stdio_printf_options
	.p2align	4, 0x90
__local_stdio_printf_options:           # @__local_stdio_printf_options
# %bb.0:
	leaq	__local_stdio_printf_options._OptionsStorage(%rip), %rax
	retq
                                        # -- End function
	.lcomm	__local_stdio_printf_options._OptionsStorage,8,8 # @__local_stdio_printf_options._OptionsStorage
	.addrsig
	.addrsig_sym _vsnprintf
	.addrsig_sym multiply
	.addrsig_sym _vsprintf_l
	.addrsig_sym _vsnprintf_l
	.addrsig_sym __stdio_common_vsprintf
	.addrsig_sym __local_stdio_printf_options
	.addrsig_sym __local_stdio_printf_options._OptionsStorage
